; Function Attrs: mustprogress uwtable
define hidden void @_ZNK4cvc58internal4Subs12applyToRangeERS1_(ptr noundef nonnull readonly align 8 captures(none) dereferenceable(56) %0, ptr noundef nonnull readonly align 8 captures(none) dereferenceable(56) %1) local_unnamed_addr #6 align 2 personality ptr @__gxx_personality_v0 {
  %3 = alloca %"class.cvc5::internal::NodeTemplate", align 8
  %4 = getelementptr inbounds nuw i8, ptr %0, i64 8
  %5 = load ptr, ptr %4, align 8, !tbaa !3
  %6 = getelementptr inbounds nuw i8, ptr %0, i64 16
  %7 = load ptr, ptr %6, align 8, !tbaa !3
  %8 = icmp eq ptr %5, %7
  br i1 %8, label %.loopexit, label %9

9:                                                ; preds = %2
  %10 = getelementptr inbounds nuw i8, ptr %1, i64 32
  %11 = getelementptr inbounds nuw i8, ptr %1, i64 40
  %12 = load ptr, ptr %11, align 8, !tbaa !8
  %13 = load ptr, ptr %10, align 8, !tbaa !10
  %.not = icmp eq ptr %12, %13
  br i1 %.not, label %.loopexit, label %.lr.ph.preheader

.lr.ph.preheader:                                 ; preds = %9
  %14 = ptrtoint ptr %12 to i64
  %15 = ptrtoint ptr %13 to i64
  %16 = sub i64 %14, %15
  %17 = ashr exact i64 %16, 3
  %umax = tail call i64 @llvm.umax.i64(i64 %17, i64 1)
  br label %.lr.ph

.lr.ph:                                           ; preds = %.lr.ph.preheader, %_ZN4cvc58internal12NodeTemplateILb1EED2Ev.exit
  %.013 = phi i64 [ %62, %_ZN4cvc58internal12NodeTemplateILb1EED2Ev.exit ], [ 0, %.lr.ph.preheader ]
  call void @llvm.lifetime.start.p0(i64 8, ptr nonnull %3) #22
  %18 = load ptr, ptr %10, align 8, !tbaa !10
  %19 = getelementptr inbounds nuw %"class.cvc5::internal::NodeTemplate", ptr %18, i64 %.013
  call void @_ZNK4cvc58internal4Subs5applyERKNS0_12NodeTemplateILb1EEE(ptr dead_on_unwind nonnull writable sret(%"class.cvc5::internal::NodeTemplate") align 8 %3, ptr noundef nonnull align 8 dereferenceable(56) %0, ptr noundef nonnull align 8 dereferenceable(8) %19)
  %20 = load ptr, ptr %10, align 8, !tbaa !10
  %21 = getelementptr inbounds nuw %"class.cvc5::internal::NodeTemplate", ptr %20, i64 %.013
  %22 = load ptr, ptr %21, align 8, !tbaa !11
  %23 = load ptr, ptr %3, align 8, !tbaa !11
  %.not.i = icmp eq ptr %22, %23
  br i1 %.not.i, label %_ZN4cvc58internal12NodeTemplateILb1EEaSERKS2_.exit, label %24, !prof !20

24:                                               ; preds = %.lr.ph
  %25 = load i64, ptr %22, align 8
  %26 = and i64 %25, 1152920405095219200
  %.not.i.i = icmp eq i64 %26, 1152920405095219200
  br i1 %.not.i.i, label %_ZN4cvc58internal4expr9NodeValue3decEv.exit.i, label %27, !prof !20

27:                                               ; preds = %24
  %28 = add i64 %25, 1152920405095219200
  %29 = and i64 %28, 1152920405095219200
  %30 = and i64 %25, -1152920405095219201
  %31 = or disjoint i64 %29, %30
  store i64 %31, ptr %22, align 8
  %32 = icmp eq i64 %29, 0
  br i1 %32, label %33, label %_ZN4cvc58internal4expr9NodeValue3decEv.exit.i, !prof !20

33:                                               ; preds = %27
  invoke void @_ZN4cvc58internal4expr9NodeValue15markForDeletionEv(ptr noundef nonnull align 8 dereferenceable(24) %22)
          to label %_ZN4cvc58internal4expr9NodeValue3decEv.exit.i unwind label %63

_ZN4cvc58internal4expr9NodeValue3decEv.exit.i:    ; preds = %33, %27, %24
  %34 = load ptr, ptr %3, align 8, !tbaa !11
  store ptr %34, ptr %21, align 8, !tbaa !11
  %35 = load i64, ptr %34, align 8
  %36 = lshr i64 %35, 40
  %37 = trunc nuw nsw i64 %36 to i32
  %38 = and i32 %37, 1048575
  %39 = icmp samesign ult i32 %38, 1048574
  br i1 %39, label %40, label %45, !prof !19

40:                                               ; preds = %_ZN4cvc58internal4expr9NodeValue3decEv.exit.i
  %41 = add i64 %35, 1099511627776
  %42 = and i64 %41, 1152920405095219200
  %43 = and i64 %35, -1152920405095219201
  %44 = or disjoint i64 %42, %43
  store i64 %44, ptr %34, align 8
  br label %_ZN4cvc58internal12NodeTemplateILb1EEaSERKS2_.exit

45:                                               ; preds = %_ZN4cvc58internal4expr9NodeValue3decEv.exit.i
  %46 = icmp eq i32 %38, 1048574
  br i1 %46, label %47, label %_ZN4cvc58internal12NodeTemplateILb1EEaSERKS2_.exit, !prof !20

47:                                               ; preds = %45
  %48 = or i64 %35, 1152920405095219200
  store i64 %48, ptr %34, align 8
  invoke void @_ZN4cvc58internal4expr9NodeValue20markRefCountMaxedOutEv(ptr noundef nonnull align 8 dereferenceable(24) %34)
          to label %_ZN4cvc58internal12NodeTemplateILb1EEaSERKS2_.exit unwind label %63

_ZN4cvc58internal12NodeTemplateILb1EEaSERKS2_.exit: ; preds = %45, %40, %.lr.ph, %47
  %49 = load ptr, ptr %3, align 8, !tbaa !11
  %50 = load i64, ptr %49, align 8
  %51 = and i64 %50, 1152920405095219200
  %.not.i.i11 = icmp eq i64 %51, 1152920405095219200
  br i1 %.not.i.i11, label %_ZN4cvc58internal12NodeTemplateILb1EED2Ev.exit, label %52, !prof !20

52:                                               ; preds = %_ZN4cvc58internal12NodeTemplateILb1EEaSERKS2_.exit
  %53 = add i64 %50, 1152920405095219200
  %54 = and i64 %53, 1152920405095219200
  %55 = and i64 %50, -1152920405095219201
  %56 = or disjoint i64 %54, %55
  store i64 %56, ptr %49, align 8
  %57 = icmp eq i64 %54, 0
  br i1 %57, label %58, label %_ZN4cvc58internal12NodeTemplateILb1EED2Ev.exit, !prof !20

58:                                               ; preds = %52
  invoke void @_ZN4cvc58internal4expr9NodeValue15markForDeletionEv(ptr noundef nonnull align 8 dereferenceable(24) %49)
          to label %_ZN4cvc58internal12NodeTemplateILb1EED2Ev.exit unwind label %59

59:                                               ; preds = %58
  %60 = landingpad { ptr, i32 }
          catch ptr null
  %61 = extractvalue { ptr, i32 } %60, 0
  call void @__clang_call_terminate(ptr %61) #24
  unreachable

_ZN4cvc58internal12NodeTemplateILb1EED2Ev.exit:   ; preds = %_ZN4cvc58internal12NodeTemplateILb1EEaSERKS2_.exit, %52, %58
  call void @llvm.lifetime.end.p0(i64 8, ptr nonnull %3) #22
  %62 = add nuw i64 %.013, 1
  %exitcond.not = icmp eq i64 %62, %umax
  br i1 %exitcond.not, label %.loopexit, label %.lr.ph, !llvm.loop !65

63:                                               ; preds = %47, %33
  %64 = landingpad { ptr, i32 }
          cleanup
  call void @_ZN4cvc58internal12NodeTemplateILb1EED2Ev(ptr noundef nonnull align 8 dereferenceable(8) %3) #22
  call void @llvm.lifetime.end.p0(i64 8, ptr nonnull %3) #22
  resume { ptr, i32 } %64

.loopexit:                                        ; preds = %_ZN4cvc58internal12NodeTemplateILb1EED2Ev.exit, %9, %2
  ret void
}